; ModuleID = 'bench/duckdb/original/extent_mmap.ll'
source_filename = "bench/duckdb/original/extent_mmap.ll"
target datalayout = "e-m:e-p270:32:32-p271:32:32-p272:64:64-i64:64-i128:128-f80:128-n8:16:32:64-S128"
target triple = "x86_64-pc-linux-gnu"

@duckdb_je_opt_retain = local_unnamed_addr global i8 1, align 1

; Function Attrs: nounwind uwtable
define ptr @duckdb_je_extent_alloc_mmap(ptr noundef %0, i64 noundef %1, i64 noundef %2, ptr noundef writeonly captures(none) %3, ptr noundef %4) local_unnamed_addr #0 {
  %6 = tail call ptr @duckdb_je_pages_map(ptr noundef %0, i64 noundef %1, i64 noundef %2, ptr noundef %4) #2
  %7 = icmp eq ptr %6, null
  br i1 %7, label %12, label %8

8:                                                ; preds = %5
  %9 = load i8, ptr %4, align 1, !tbaa !3, !range !7, !noundef !8
  %10 = trunc nuw i8 %9 to i1
  br i1 %10, label %11, label %12

11:                                               ; preds = %8
  store i8 1, ptr %3, align 1, !tbaa !3
  br label %12

12:                                               ; preds = %8, %11, %5
  ret ptr %6
}

declare ptr @duckdb_je_pages_map(ptr noundef, i64 noundef, i64 noundef, ptr noundef) local_unnamed_addr #1

; Function Attrs: nounwind uwtable
define zeroext i1 @duckdb_je_extent_dalloc_mmap(ptr noundef %0, i64 noundef %1) local_unnamed_addr #0 {
  %3 = load i8, ptr @duckdb_je_opt_retain, align 1, !tbaa !3, !range !7, !noundef !8
  %4 = trunc nuw i8 %3 to i1
  br i1 %4, label %6, label %5

5:                                                ; preds = %2
  tail call void @duckdb_je_pages_unmap(ptr noundef %0, i64 noundef %1) #2
  %.pre = load i8, ptr @duckdb_je_opt_retain, align 1, !tbaa !3, !range !7
  %.pre1 = trunc nuw i8 %.pre to i1
  br label %6

6:                                                ; preds = %5, %2
  %.pre-phi = phi i1 [ %.pre1, %5 ], [ true, %2 ]
  ret i1 %.pre-phi
}

declare void @duckdb_je_pages_unmap(ptr noundef, i64 noundef) local_unnamed_addr #1


!llvm.module.flags = !{!0, !1, !2}

!0 = !{i32 1, !"wchar_size", i32 4}
!1 = !{i32 8, !"PIC Level", i32 2}
!2 = !{i32 7, !"uwtable", i32 2}
!3 = !{!4, !4, i64 0}
!4 = !{!"_Bool", !5, i64 0}
!5 = !{!"omnipotent char", !6, i64 0}
!6 = !{!"Simple C/C++ TBAA"}
!7 = !{i8 0, i8 2}
!8 = !{}
